; Function Attrs: mustprogress uwtable
define hidden noundef zeroext i1 @_ZN6Assimp13glTF2Exporter18GetMatTransmissionERK10aiMaterialRN5glTF220MaterialTransmissionE(ptr noundef nonnull align 8 dereferenceable(120) %this, ptr noundef nonnull align 8 dereferenceable(16) %mat, ptr noundef nonnull align 8 dereferenceable(52) %transmission) local_unnamed_addr #2 align 2 {
entry:
  %transmissionFactor = getelementptr inbounds i8, ptr %transmission, i64 48
  %call.i.i = tail call noundef i32 @aiGetMaterialFloatArray(ptr noundef nonnull %mat, ptr noundef nonnull @.str.36, i32 noundef 0, i32 noundef 0, ptr noundef nonnull %transmissionFactor, ptr noundef null)
  %cmp = icmp eq i32 %call.i.i, 0
  %texCoord.i = getelementptr inbounds i8, ptr %transmission, i64 20
  tail call void @_ZN6Assimp13glTF2Exporter9GetMatTexERK10aiMaterialRN10glTFCommon3RefIN5glTF27TextureEEERj13aiTextureTypej(ptr noundef nonnull align 8 dereferenceable(120) %this, ptr noundef nonnull align 8 dereferenceable(16) %mat, ptr noundef nonnull align 8 dereferenceable(12) %transmission, ptr noundef nonnull align 4 dereferenceable(4) %texCoord.i, i32 noundef 21, i32 noundef 0)
  br i1 %cmp, label %lor.end, label %lor.rhs

lor.rhs:                                          ; preds = %entry
  %0 = load ptr, ptr %transmission, align 8
  %cmp.not.i = icmp eq ptr %0, null
  br i1 %cmp.not.i, label %lor.end, label %land.rhs.i

land.rhs.i:                                       ; preds = %lor.rhs
  %index.i = getelementptr inbounds i8, ptr %transmission, i64 8
  %1 = load i32, ptr %index.i, align 8
  %conv.i = zext i32 %1 to i64
  %_M_finish.i.i = getelementptr inbounds i8, ptr %0, i64 8
  %2 = load ptr, ptr %_M_finish.i.i, align 8
  %3 = load ptr, ptr %0, align 8
  %sub.ptr.lhs.cast.i.i = ptrtoint ptr %2 to i64
  %sub.ptr.rhs.cast.i.i = ptrtoint ptr %3 to i64
  %sub.ptr.sub.i.i = sub i64 %sub.ptr.lhs.cast.i.i, %sub.ptr.rhs.cast.i.i
  %sub.ptr.div.i.i = ashr exact i64 %sub.ptr.sub.i.i, 3
  %cmp3.i = icmp ugt i64 %sub.ptr.div.i.i, %conv.i
  br label %lor.end

lor.end:                                          ; preds = %land.rhs.i, %lor.rhs, %entry
  %4 = phi i1 [ true, %entry ], [ false, %lor.rhs ], [ %cmp3.i, %land.rhs.i ]
  ret i1 %4
}